(dp0
S'version'
p1
I3
sS'data'
p2
(dp3
S'f334f72ec32649b5f270ddbbf63a548fecaf9d20'
p4
(dp5
S'playlist'
p6
(lp7
(dp8
S'category'
p9
Vtv
p10
sS'content_id'
p11
Vb1c5b87492d00cf89bc3848b9fef382da18bdedf
p12
sS'is_deleted'
p13
I00
sS'description'
p14
S''
p15
sS'external_playlist_id'
p16
I-1
sS'auto_search'
p17
I00
sS'url'
p18
NsS'poster'
p19
g15
sS'created_at'
p20
L1589577085L
sS'title'
p21
S'moresisek'
p22
sS'updated_at'
p23
I1588609016
sS'is_live'
p24
I0
sS'transport_type'
p25
Vhls
p26
sS'infohash'
p27
V35e0a078942de067710d7879ce4611beac3240ae
p28
sS'content_type'
p29
Vlive
p30
sS'is_favorite'
p31
I00
sS'is_multi_tfile'
p32
I00
sS'is_multi_vod'
p33
I00
sS'id'
p34
I1
sS'tags'
p35
(lp36
S'other_18_plus'
p37
asS'subcategory'
p38
g15
sasS'max_item_id'
p39
I1
sss.