(dp0
S'init_upload_slots'
p1
I10
sS'fix_upload_slots'
p2
I01
sS'upnp_enabled'
p3
I01
sS'allow_remote_settings_access'
p4
I01
sS'disk_cache_auto'
p5
I01
sS'memory_cache_limit'
p6
I1284505600
sS'debug_from_ui_enabled'
p7
I1
sS'total_max_upload_rate'
p8
I0
sS'enable_interruptable_ads'
p9
I01
sS'download_dir'
p10
S'b:\\_acestream_cache_'
p11
sS'live_cache_type'
p12
S'disk'
p13
sS'ad_storage_limit'
p14
L1073741824L
sS'max_peers'
p15
I50
sS'max_connects'
p16
I500
sS'vod_cache_type'
p17
S'memory'
p18
sS'wait_sufficient_speed'
p19
I00
sS'live_buffer_time'
p20
I10
sS'total_max_download_rate'
p21
I0
sS'player_buffer_time'
p22
I3
sS'auto_download_limit'
p23
I01
s.